; Function Attrs: mustprogress uwtable
define void @_ZN6icu_7714ResourceBundleC2ERKNS_13UnicodeStringERKNS_6LocaleER10UErrorCode(ptr noundef nonnull align 8 dereferenceable(24) initializes((0, 8), (16, 24)) %0, ptr noundef nonnull align 8 dereferenceable(64) %1, ptr noundef nonnull readonly align 8 captures(none) dereferenceable(217) %2, ptr noundef nonnull align 4 dereferenceable(4) %3) unnamed_addr #0 align 2 personality ptr @__gxx_personality_v0 {
  store ptr getelementptr inbounds nuw inrange(-16, 24) (i8, ptr @_ZTVN6icu_7714ResourceBundleE, i64 16), ptr %0, align 8, !tbaa !3
  %5 = getelementptr inbounds nuw i8, ptr %0, i64 16
  store ptr null, ptr %5, align 8, !tbaa !6
  invoke void @_ZN6icu_7714ResourceBundle18constructForLocaleERKNS_13UnicodeStringERKNS_6LocaleER10UErrorCode(ptr noundef nonnull align 8 dereferenceable(24) %0, ptr noundef nonnull align 8 dereferenceable(64) %1, ptr noundef nonnull align 8 dereferenceable(217) %2, ptr noundef nonnull align 4 dereferenceable(4) %3)
          to label %6 unwind label %7

6:                                                ; preds = %4
  ret void

7:                                                ; preds = %4
  %8 = landingpad { ptr, i32 }
          cleanup
  tail call void @_ZN6icu_777UObjectD2Ev(ptr noundef nonnull align 8 dereferenceable(8) %0) #4
  resume { ptr, i32 } %8
}